Archive member included because of file (symbol)

/u/wbcowan/gnuarm-4.0.2/lib/gcc/arm-elf/4.0.2/libgcc.a(_udivsi3.o)
                              wrapper.o (__udivsi3)
/u/wbcowan/gnuarm-4.0.2/lib/gcc/arm-elf/4.0.2/libgcc.a(_divsi3.o)
                              train.o (__divsi3)
/u/wbcowan/gnuarm-4.0.2/lib/gcc/arm-elf/4.0.2/libgcc.a(_umodsi3.o)
                              wrapper.o (__umodsi3)
/u/wbcowan/gnuarm-4.0.2/lib/gcc/arm-elf/4.0.2/libgcc.a(_dvmd_tls.o)
                              /u/wbcowan/gnuarm-4.0.2/lib/gcc/arm-elf/4.0.2/libgcc.a(_udivsi3.o) (__div0)

Memory Configuration

Name             Origin             Length             Attributes
ram              0x0000000000000000 0x0000000002000000
rom              0x0000000060000000 0x0000000000800000
*default*        0x0000000000000000 0xffffffffffffffff

Linker script and memory map


data            0x0000000000000000        0x0
                0x0000000000000000                _DataStart = .
 *(.data)
                0x0000000000000000                _DataEnd = .

bss             0x0000000000000000        0x0
                0x0000000000000000                _BssStart = .
 *(.bss)
                0x0000000000000000                _BssEnd = .

text            0x0000000000000000     0x6084
 *(.text)
 .text          0x0000000000000000      0x6d8 kernel.o
                0x0000000000000000                main
 .text          0x00000000000006d8      0x330 ClockServer.o
                0x00000000000007c8                clockNotifier
                0x00000000000006d8                add_wtid
                0x000000000000080c                clockServer
 .text          0x0000000000000a08      0x1d4 helper.o
                0x0000000000000a08                myMemCpy
                0x0000000000000b08                reverse
                0x0000000000000bb8                memcpy
                0x0000000000000aac                myStrcmp
                0x0000000000000b44                myItoa
                0x0000000000000a2c                myAtoi
 .text          0x0000000000000bdc      0x67c kernelFunction.o
                0x0000000000000fa4                handle_block
                0x0000000000000bdc                handle
                0x0000000000000cfc                handle_msg_passing
 .text          0x0000000000001258      0x12c nameServer.o
                0x0000000000001258                nameServer
 .text          0x0000000000001384      0x194 taskDescriptor.o
                0x0000000000001384                schedule
                0x00000000000014e8                getTaskDes
                0x000000000000145c                pq_delete
                0x00000000000013c8                pq_insert
                0x0000000000001404                pq_movetoend
 .text          0x0000000000001518      0x11c userFunction.o
                0x000000000000151c                user
                0x0000000000001518                idle
                0x000000000000157c                first
 .text          0x0000000000001634      0x4d0 contextSwitch.o
                0x0000000000001634                activate
                0x0000000000001898                initialize
 .text          0x0000000000001b04      0xa1c command.o
                0x0000000000001c58                parse_digit3
                0x000000000000230c                parse_command
                0x0000000000002074                parse_arg3
                0x0000000000001d80                parse_arg1
                0x0000000000001b04                parse_digit1
                0x0000000000001b84                parse_digit2
                0x0000000000001ea0                parse_arg2
 .text          0x0000000000002520      0x310 syscall.o
                0x0000000000002520                Send
                0x0000000000002720                MyParentTid
                0x0000000000002750                Pass
                0x0000000000002694                Create
                0x0000000000002788                AwaitEvent
                0x00000000000025b4                Receive
                0x0000000000002624                Reply
                0x00000000000026f0                MyTid
                0x0000000000002800                KExit
                0x000000000000276c                Exit
                0x00000000000027d0                IdlePct
 .text          0x0000000000002830      0x8e8 wrapper.o
                0x0000000000002c00                putw
                0x00000000000028cc                Getc
                0x000000000000294c                Putc
                0x0000000000002bac                putstr
                0x0000000000002e40                i2a
                0x0000000000002e5c                format
                0x0000000000002884                WhoIs
                0x0000000000003094                setspeed
                0x0000000000003058                setfifo
                0x0000000000002aec                myc2x
                0x0000000000002b0c                putx
                0x0000000000002a7c                DelayUntil
                0x0000000000002d64                ui2a
                0x0000000000002d0c                a2i
                0x0000000000002ccc                a2d
                0x0000000000002fd0                Printf
                0x0000000000002830                RegisterAs
                0x0000000000002a28                Delay
                0x0000000000002ad4                Insert
                0x00000000000029d4                Time
                0x0000000000002b5c                putr
 .text          0x0000000000003118      0xe94 ioServer.o
                0x0000000000003d34                Courier1
                0x0000000000003cac                COM2PutNotifier
                0x00000000000033f8                COM1PutServer
                0x0000000000003e70                Courier2
                0x0000000000003910                COM2PutServer
                0x0000000000003bb8                COM1PutNotifier
                0x0000000000003118                COM1GetServer
                0x0000000000003630                COM2GetServer
                0x0000000000003c48                COM2GetNotifier
                0x0000000000003b50                COM1GetNotifier
 .text          0x0000000000003fac      0xe14 train.o
                0x00000000000042d0                timer
                0x0000000000004470                sensorData
                0x0000000000003fac                init
                0x0000000000004848                trainCommunication
 .text          0x0000000000004dc0      0xc54 bwio.o
                0x0000000000005138                bwputr
                0x00000000000056a4                bwi2a
                0x0000000000004dc0                bwsetfifo
                0x0000000000004f94                bwputc
                0x00000000000053f4                bwa2d
                0x0000000000004e88                bwsetspeed
                0x0000000000005058                c2x
                0x000000000000549c                bwa2i
                0x000000000000533c                bwgetc
                0x0000000000005560                bwui2a
                0x0000000000005708                bwformat
                0x0000000000005234                bwputw
                0x00000000000059dc                bwprintf
                0x00000000000050b8                bwputx
                0x00000000000051b8                bwputstr
 .text          0x0000000000005a14      0x110 /u/wbcowan/gnuarm-4.0.2/lib/gcc/arm-elf/4.0.2/libgcc.a(_udivsi3.o)
                0x0000000000005a14                __udivsi3
                0x0000000000005b0c                __aeabi_uidivmod
 .text          0x0000000000005b24      0x140 /u/wbcowan/gnuarm-4.0.2/lib/gcc/arm-elf/4.0.2/libgcc.a(_divsi3.o)
                0x0000000000005b24                __divsi3
                0x0000000000005c4c                __aeabi_idivmod
 .text          0x0000000000005c64       0xcc /u/wbcowan/gnuarm-4.0.2/lib/gcc/arm-elf/4.0.2/libgcc.a(_umodsi3.o)
                0x0000000000005c64                __umodsi3
 .text          0x0000000000005d30        0x4 /u/wbcowan/gnuarm-4.0.2/lib/gcc/arm-elf/4.0.2/libgcc.a(_dvmd_tls.o)
                0x0000000000005d30                __aeabi_ldiv0
                0x0000000000005d30                __div0
                0x0000000000005d30                __aeabi_idiv0
 *(.got)
 .got           0x0000000000005d34       0x4c ClockServer.o
 *(.got.plt)
 .got.plt       0x0000000000005d80        0xc ClockServer.o
                0x0000000000005d80                _GLOBAL_OFFSET_TABLE_
 *(.rodata)
 .rodata        0x0000000000005d8c       0x58 ioServer.o
 .rodata        0x0000000000005de4      0x23c train.o
 *(.rodata.str1.4)
 .rodata.str1.4
                0x0000000000006020        0xc ClockServer.o
 .rodata.str1.4
                0x000000000000602c       0x55 wrapper.o
                                         0x64 (size before relaxing)
 *(.glue_7)
 *fill*         0x0000000000006081        0x3 00
 *(.glue_7t)

.rel.dyn
LOAD kernel.o
LOAD ClockServer.o
LOAD helper.o
LOAD kernelFunction.o
LOAD nameServer.o
LOAD taskDescriptor.o
LOAD userFunction.o
LOAD contextSwitch.o
LOAD command.o
LOAD syscall.o
LOAD wrapper.o
LOAD ioServer.o
LOAD train.o
LOAD bwio.o
LOAD /u/wbcowan/gnuarm-4.0.2/lib/gcc/arm-elf/4.0.2/libgcc.a
OUTPUT(kernel.elf elf32-littlearm)

.comment        0x0000000000000000       0xfc
 .comment       0x0000000000000000       0x12 kernel.o
 .comment       0x0000000000000012       0x12 ClockServer.o
 .comment       0x0000000000000024       0x12 helper.o
 .comment       0x0000000000000036       0x12 kernelFunction.o
 .comment       0x0000000000000048       0x12 nameServer.o
 .comment       0x000000000000005a       0x12 taskDescriptor.o
 .comment       0x000000000000006c       0x12 userFunction.o
 .comment       0x000000000000007e       0x12 contextSwitch.o
 .comment       0x0000000000000090       0x12 command.o
 .comment       0x00000000000000a2       0x12 syscall.o
 .comment       0x00000000000000b4       0x12 wrapper.o
 .comment       0x00000000000000c6       0x12 ioServer.o
 .comment       0x00000000000000d8       0x12 train.o
 .comment       0x00000000000000ea       0x12 bwio.o

.debug_line     0x0000000000000000      0x1e1
 .debug_line    0x0000000000000000       0x86 /u/wbcowan/gnuarm-4.0.2/lib/gcc/arm-elf/4.0.2/libgcc.a(_udivsi3.o)
 .debug_line    0x0000000000000086       0x92 /u/wbcowan/gnuarm-4.0.2/lib/gcc/arm-elf/4.0.2/libgcc.a(_divsi3.o)
 .debug_line    0x0000000000000118       0x6f /u/wbcowan/gnuarm-4.0.2/lib/gcc/arm-elf/4.0.2/libgcc.a(_umodsi3.o)
 .debug_line    0x0000000000000187       0x5a /u/wbcowan/gnuarm-4.0.2/lib/gcc/arm-elf/4.0.2/libgcc.a(_dvmd_tls.o)

.debug_info     0x0000000000000000      0x1c4
 .debug_info    0x0000000000000000       0x71 /u/wbcowan/gnuarm-4.0.2/lib/gcc/arm-elf/4.0.2/libgcc.a(_udivsi3.o)
 .debug_info    0x0000000000000071       0x71 /u/wbcowan/gnuarm-4.0.2/lib/gcc/arm-elf/4.0.2/libgcc.a(_divsi3.o)
 .debug_info    0x00000000000000e2       0x71 /u/wbcowan/gnuarm-4.0.2/lib/gcc/arm-elf/4.0.2/libgcc.a(_umodsi3.o)
 .debug_info    0x0000000000000153       0x71 /u/wbcowan/gnuarm-4.0.2/lib/gcc/arm-elf/4.0.2/libgcc.a(_dvmd_tls.o)

.debug_abbrev   0x0000000000000000       0x50
 .debug_abbrev  0x0000000000000000       0x14 /u/wbcowan/gnuarm-4.0.2/lib/gcc/arm-elf/4.0.2/libgcc.a(_udivsi3.o)
 .debug_abbrev  0x0000000000000014       0x14 /u/wbcowan/gnuarm-4.0.2/lib/gcc/arm-elf/4.0.2/libgcc.a(_divsi3.o)
 .debug_abbrev  0x0000000000000028       0x14 /u/wbcowan/gnuarm-4.0.2/lib/gcc/arm-elf/4.0.2/libgcc.a(_umodsi3.o)
 .debug_abbrev  0x000000000000003c       0x14 /u/wbcowan/gnuarm-4.0.2/lib/gcc/arm-elf/4.0.2/libgcc.a(_dvmd_tls.o)

.debug_aranges  0x0000000000000000       0x80
 .debug_aranges
                0x0000000000000000       0x20 /u/wbcowan/gnuarm-4.0.2/lib/gcc/arm-elf/4.0.2/libgcc.a(_udivsi3.o)
 .debug_aranges
                0x0000000000000020       0x20 /u/wbcowan/gnuarm-4.0.2/lib/gcc/arm-elf/4.0.2/libgcc.a(_divsi3.o)
 .debug_aranges
                0x0000000000000040       0x20 /u/wbcowan/gnuarm-4.0.2/lib/gcc/arm-elf/4.0.2/libgcc.a(_umodsi3.o)
 .debug_aranges
                0x0000000000000060       0x20 /u/wbcowan/gnuarm-4.0.2/lib/gcc/arm-elf/4.0.2/libgcc.a(_dvmd_tls.o)
